; Function Attrs: nounwind uwtable
define hidden void @SDL_CloseAudioDevice_REAL(i32 noundef %0) local_unnamed_addr #0 {
  %2 = alloca ptr, align 8
  call void @llvm.lifetime.start.p0(i64 8, ptr nonnull %2) #14
  store ptr null, ptr %2, align 8
  %3 = call fastcc ptr @ObtainLogicalAudioDevice(i32 noundef %0, ptr noundef %2)
  %.not = icmp eq ptr %3, null
  br i1 %.not, label %5, label %4

4:                                                ; preds = %1
  tail call fastcc void @DestroyLogicalAudioDevice(ptr noundef %3)
  br label %5

5:                                                ; preds = %4, %1
  %6 = load ptr, ptr %2, align 8
  %.not3 = icmp eq ptr %6, null
  br i1 %.not3, label %UnrefPhysicalAudioDevice.exit, label %7

7:                                                ; preds = %5
  %8 = getelementptr inbounds nuw i8, ptr %6, i64 208
  %9 = load ptr, ptr %8, align 8
  %.not4 = icmp eq ptr %9, null
  br i1 %.not4, label %10, label %11

10:                                               ; preds = %7
  tail call fastcc void @ClosePhysicalAudioDevice(ptr noundef nonnull %6)
  br label %11

11:                                               ; preds = %10, %7
  %12 = getelementptr inbounds nuw i8, ptr %6, i64 16
  %13 = tail call i32 @SDL_AddAtomicInt_REAL(ptr noundef nonnull %12, i32 noundef -1) #14
  %14 = icmp eq i32 %13, 1
  br i1 %14, label %15, label %UnrefPhysicalAudioDevice.exit

15:                                               ; preds = %11
  %16 = load ptr, ptr getelementptr inbounds nuw (i8, ptr @current_audio, i64 136), align 8
  tail call void @SDL_LockRWLockForWriting_REAL(ptr noundef %16) #14
  %17 = load ptr, ptr getelementptr inbounds nuw (i8, ptr @current_audio, i64 144), align 8
  %18 = getelementptr inbounds nuw i8, ptr %6, i64 80
  %19 = load i32, ptr %18, align 8
  %20 = zext i32 %19 to i64
  %21 = inttoptr i64 %20 to ptr
  %22 = tail call zeroext i1 @SDL_RemoveFromHashTable(ptr noundef %17, ptr noundef %21) #14
  br i1 %22, label %23, label %29

23:                                               ; preds = %15
  %24 = getelementptr inbounds nuw i8, ptr %6, i64 148
  %25 = load i8, ptr %24, align 4, !range !6, !noundef !7
  %26 = trunc nuw i8 %25 to i1
  %27 = select i1 %26, ptr getelementptr inbounds nuw (i8, ptr @current_audio, i64 196), ptr getelementptr inbounds nuw (i8, ptr @current_audio, i64 192)
  %28 = tail call i32 @SDL_AddAtomicInt_REAL(ptr noundef nonnull %27, i32 noundef -1) #14
  br label %29

29:                                               ; preds = %23, %15
  %30 = load ptr, ptr getelementptr inbounds nuw (i8, ptr @current_audio, i64 136), align 8
  tail call void @SDL_UnlockRWLock_REAL(ptr noundef %30) #14
  tail call fastcc void @DestroyPhysicalAudioDevice(ptr noundef nonnull %6)
  br label %UnrefPhysicalAudioDevice.exit

UnrefPhysicalAudioDevice.exit:                    ; preds = %29, %11, %5
  tail call fastcc void @ReleaseAudioDevice(ptr noundef %6)
  call void @llvm.lifetime.end.p0(i64 8, ptr nonnull %2) #14
  ret void
}